; Function Attrs: mustprogress nounwind uwtable
define void @_ZN5faiss9DirectMap5clearEv(ptr noundef nonnull align 8 captures(none) dereferenceable(88) %0) local_unnamed_addr #16 align 2 personality ptr @__gxx_personality_v0 {
  %2 = getelementptr inbounds nuw i8, ptr %0, i64 8
  %3 = load ptr, ptr %2, align 8, !tbaa !33
  %4 = getelementptr inbounds nuw i8, ptr %0, i64 16
  %5 = load ptr, ptr %4, align 8, !tbaa !34
  %.not.i.i = icmp eq ptr %5, %3
  br i1 %.not.i.i, label %_ZNSt6vectorIlSaIlEE5clearEv.exit, label %6

6:                                                ; preds = %1
  store ptr %3, ptr %4, align 8, !tbaa !34
  br label %_ZNSt6vectorIlSaIlEE5clearEv.exit

_ZNSt6vectorIlSaIlEE5clearEv.exit:                ; preds = %1, %6
  %7 = getelementptr inbounds nuw i8, ptr %0, i64 48
  %8 = load ptr, ptr %7, align 8, !tbaa !35
  %.not5.i.i.i = icmp eq ptr %8, null
  br i1 %.not5.i.i.i, label %_ZNSt13unordered_mapIllSt4hashIlESt8equal_toIlESaISt4pairIKllEEE5clearEv.exit, label %.lr.ph.i.i.i

.lr.ph.i.i.i:                                     ; preds = %_ZNSt6vectorIlSaIlEE5clearEv.exit, %.lr.ph.i.i.i
  %.06.i.i.i = phi ptr [ %9, %.lr.ph.i.i.i ], [ %8, %_ZNSt6vectorIlSaIlEE5clearEv.exit ]
  %9 = load ptr, ptr %.06.i.i.i, align 8, !tbaa !36
  tail call void @_ZdlPvm(ptr noundef nonnull %.06.i.i.i, i64 noundef 24) #25
  %.not.i.i.i = icmp eq ptr %9, null
  br i1 %.not.i.i.i, label %_ZNSt13unordered_mapIllSt4hashIlESt8equal_toIlESaISt4pairIKllEEE5clearEv.exit, label %.lr.ph.i.i.i, !llvm.loop !37

_ZNSt13unordered_mapIllSt4hashIlESt8equal_toIlESaISt4pairIKllEEE5clearEv.exit: ; preds = %.lr.ph.i.i.i, %_ZNSt6vectorIlSaIlEE5clearEv.exit
  %10 = getelementptr inbounds nuw i8, ptr %0, i64 32
  %11 = load ptr, ptr %10, align 8, !tbaa !23
  %12 = getelementptr inbounds nuw i8, ptr %0, i64 40
  %13 = load i64, ptr %12, align 8, !tbaa !24
  %14 = shl i64 %13, 3
  tail call void @llvm.memset.p0.i64(ptr align 8 %11, i8 0, i64 %14, i1 false)
  tail call void @llvm.memset.p0.i64(ptr noundef nonnull align 8 dereferenceable(16) %7, i8 0, i64 16, i1 false)
  ret void
}